; Function Attrs: nounwind uwtable
define internal fastcc i32 @save_opaque(ptr noundef %0, ptr %.24.val) unnamed_addr #2 {
  %2 = alloca i32, align 4
  %3 = alloca i32, align 4
  %4 = alloca ptr, align 8
  call void @llvm.lifetime.start.p0(i64 4, ptr nonnull %3) #6
  store i32 0, ptr %3, align 4, !tbaa !43
  call void @llvm.lifetime.start.p0(i64 8, ptr nonnull %4) #6
  store ptr null, ptr %4, align 8, !tbaa !30
  %5 = call i32 @exr_attr_opaquedata_pack(ptr noundef %0, ptr noundef %.24.val, ptr noundef nonnull %3, ptr noundef nonnull %4) #6
  %.not = icmp eq i32 %5, 0
  br i1 %.not, label %6, label %28

6:                                                ; preds = %1
  %7 = load i32, ptr %3, align 4, !tbaa !43
  call void @llvm.lifetime.start.p0(i64 4, ptr nonnull %2) #6
  %8 = icmp slt i32 %7, 0
  br i1 %8, label %9, label %13

9:                                                ; preds = %6
  %10 = getelementptr inbounds nuw i8, ptr %0, i64 56
  %11 = load ptr, ptr %10, align 8, !tbaa !54
  %12 = call i32 %11(ptr noundef %0, i32 noundef 3) #6
  br label %save_attr_sz.exit

13:                                               ; preds = %6
  store i32 %7, ptr %2, align 4, !tbaa !43
  %14 = getelementptr inbounds nuw i8, ptr %0, i64 48
  %15 = load ptr, ptr %14, align 8, !tbaa !46
  %16 = getelementptr inbounds nuw i8, ptr %0, i64 176
  %17 = call i32 %15(ptr noundef %0, ptr noundef nonnull %2, i64 noundef 4, ptr noundef nonnull %16) #6
  br label %save_attr_sz.exit

save_attr_sz.exit:                                ; preds = %9, %13
  %.0.i = phi i32 [ %12, %9 ], [ %17, %13 ]
  call void @llvm.lifetime.end.p0(i64 4, ptr nonnull %2) #6
  %18 = icmp eq i32 %.0.i, 0
  %19 = load i32, ptr %3, align 4
  %20 = icmp sgt i32 %19, 0
  %or.cond = select i1 %18, i1 %20, i1 false
  br i1 %or.cond, label %21, label %28

21:                                               ; preds = %save_attr_sz.exit
  %22 = getelementptr inbounds nuw i8, ptr %0, i64 48
  %23 = load ptr, ptr %22, align 8, !tbaa !46
  %24 = load ptr, ptr %4, align 8, !tbaa !30
  %25 = zext nneg i32 %19 to i64
  %26 = getelementptr inbounds nuw i8, ptr %0, i64 176
  %27 = call i32 %23(ptr noundef nonnull %0, ptr noundef %24, i64 noundef %25, ptr noundef nonnull %26) #6
  br label %28

28:                                               ; preds = %save_attr_sz.exit, %21, %1
  %.011 = phi i32 [ %5, %1 ], [ %27, %21 ], [ %.0.i, %save_attr_sz.exit ]
  call void @llvm.lifetime.end.p0(i64 8, ptr nonnull %4) #6
  call void @llvm.lifetime.end.p0(i64 4, ptr nonnull %3) #6
  ret i32 %.011
}